target datalayout = "e-m:e-p270:32:32-p271:32:32-p272:64:64-i64:64-i128:128-f80:128-n8:16:32:64-S128"
target triple = "x86_64-pc-linux-gnu"

@__const.HIDAPI_DriverXbox360_RumbleJoystick.rumble_packet = private unnamed_addr constant [8 x i8] c"\00\08\00\00\00\00\00\00", align 1
@.str.6 = private unnamed_addr constant [28 x i8] c"Couldn't send rumble packet\00", align 1

; Function Attrs: nounwind uwtable
define internal zeroext i1 @HIDAPI_DriverXbox360_RumbleJoystick(ptr noundef %0, ptr noundef %1, i16 noundef zeroext %2, i16 noundef zeroext %3) #0 {
  %5 = alloca i1, align 1
  %6 = alloca ptr, align 8
  %7 = alloca ptr, align 8
  %8 = alloca i16, align 2
  %9 = alloca i16, align 2
  %10 = alloca [8 x i8], align 1
  %11 = alloca i32, align 4
  store ptr %0, ptr %6, align 8
  store ptr %1, ptr %7, align 8
  store i16 %2, ptr %8, align 2
  store i16 %3, ptr %9, align 2
  call void @llvm.lifetime.start.p0(i64 8, ptr %10) #6
  call void @llvm.memcpy.p0.p0.i64(ptr align 1 %10, ptr align 1 @__const.HIDAPI_DriverXbox360_RumbleJoystick.rumble_packet, i64 8, i1 false)
  %12 = load i16, ptr %8, align 2
  %13 = zext i16 %12 to i32
  %14 = ashr i32 %13, 8
  %15 = trunc i32 %14 to i8
  %16 = getelementptr inbounds [8 x i8], ptr %10, i64 0, i64 3
  store i8 %15, ptr %16, align 1
  %17 = load i16, ptr %9, align 2
  %18 = zext i16 %17 to i32
  %19 = ashr i32 %18, 8
  %20 = trunc i32 %19 to i8
  %21 = getelementptr inbounds [8 x i8], ptr %10, i64 0, i64 4
  store i8 %20, ptr %21, align 1
  %22 = load ptr, ptr %6, align 8
  %23 = getelementptr inbounds [8 x i8], ptr %10, i64 0, i64 0
  %24 = call i32 @SDL_HIDAPI_SendRumble(ptr noundef %22, ptr noundef %23, i32 noundef 8)
  %25 = sext i32 %24 to i64
  %26 = icmp ne i64 %25, 8
  br i1 %26, label %27, label %29

27:                                               ; preds = %4
  %28 = call zeroext i1 (ptr, ...) @SDL_SetError_REAL(ptr noundef @.str.6)
  store i1 %28, ptr %5, align 1
  store i32 1, ptr %11, align 4
  br label %30

29:                                               ; preds = %4
  store i1 true, ptr %5, align 1
  store i32 1, ptr %11, align 4
  br label %30

30:                                               ; preds = %29, %27
  call void @llvm.lifetime.end.p0(i64 8, ptr %10) #6
  %31 = load i1, ptr %5, align 1
  ret i1 %31
}