; Function Attrs: nounwind uwtable
define internal zeroext i1 @HIDAPI_DriverXbox360_RumbleJoystick(ptr noundef %0, ptr readnone captures(none) %1, i16 noundef zeroext %2, i16 noundef zeroext %3) #0 {
  %5 = alloca [8 x i8], align 8
  call void @llvm.lifetime.start.p0(i64 8, ptr nonnull %5) #9
  store i64 2048, ptr %5, align 8
  %6 = lshr i16 %2, 8
  %7 = trunc nuw i16 %6 to i8
  %8 = getelementptr inbounds nuw i8, ptr %5, i64 3
  store i8 %7, ptr %8, align 1
  %9 = lshr i16 %3, 8
  %10 = trunc nuw i16 %9 to i8
  %11 = getelementptr inbounds nuw i8, ptr %5, i64 4
  store i8 %10, ptr %11, align 4
  %12 = call i32 @SDL_HIDAPI_SendRumble(ptr noundef %0, ptr noundef nonnull %5, i32 noundef 8) #9
  %.not = icmp eq i32 %12, 8
  br i1 %.not, label %15, label %13

13:                                               ; preds = %4
  %14 = call zeroext i1 (ptr, ...) @SDL_SetError_REAL(ptr noundef nonnull @.str.6) #9
  br label %15

15:                                               ; preds = %4, %13
  %.0 = phi i1 [ %14, %13 ], [ true, %4 ]
  call void @llvm.lifetime.end.p0(i64 8, ptr nonnull %5) #9
  ret i1 %.0
}